; Function Attrs: mustprogress uwtable
define void @_ZN4YAML7EmitterC2Ev(ptr noundef nonnull align 8 dereferenceable(72) %0) unnamed_addr #0 align 2 personality ptr @__gxx_personality_v0 {
  %2 = tail call noalias noundef nonnull dereferenceable(224) ptr @_Znwm(i64 noundef 224) #16
  invoke void @_ZN4YAML12EmitterStateC1Ev(ptr noundef nonnull align 8 dereferenceable(224) %2)
          to label %3 unwind label %6

3:                                                ; preds = %1
  store ptr %2, ptr %0, align 8, !tbaa !3
  %4 = getelementptr inbounds nuw i8, ptr %0, i64 8
  invoke void @_ZN4YAML15ostream_wrapperC1Ev(ptr noundef nonnull align 8 dereferenceable(57) %4)
          to label %5 unwind label %8

5:                                                ; preds = %3
  ret void

6:                                                ; preds = %1
  %7 = landingpad { ptr, i32 }
          cleanup
  tail call void @_ZdlPv(ptr noundef nonnull %2) #17
  br label %10

8:                                                ; preds = %3
  %9 = landingpad { ptr, i32 }
          cleanup
  tail call void @_ZNSt10unique_ptrIN4YAML12EmitterStateESt14default_deleteIS1_EED2Ev(ptr noundef nonnull align 8 dereferenceable(8) %0) #18
  br label %10

10:                                               ; preds = %8, %6
  %.pn = phi { ptr, i32 } [ %9, %8 ], [ %7, %6 ]
  resume { ptr, i32 } %.pn
}